target datalayout = "e-m:e-p270:32:32-p271:32:32-p272:64:64-i64:64-i128:128-f80:128-n8:16:32:64-S128"
target triple = "x86_64-pc-linux-gnu"

@hf_bytes = internal global i32 0, align 4
@.str.593 = private unnamed_addr constant [3 x i8] c"%s\00", align 1
@.str.658 = private unnamed_addr constant [6 x i8] c" %02X\00", align 1
@.str.671 = private unnamed_addr constant [6 x i8] c"%s: $\00", align 1
@.str.672 = private unnamed_addr constant [5 x i8] c"%02X\00", align 1

; Function Attrs: null_pointer_is_valid sspstrong uwtable
define internal ptr @proto_tree_add_data(ptr noundef %0, ptr noundef %1, i32 noundef %2, i32 noundef %3, ptr noundef %4, ptr noundef %5, ptr noundef %6, ptr noundef %7, ptr noundef %8) #0 {
  %10 = alloca ptr, align 8
  %11 = alloca ptr, align 8
  %12 = alloca i32, align 4
  %13 = alloca i32, align 4
  %14 = alloca ptr, align 8
  %15 = alloca ptr, align 8
  %16 = alloca ptr, align 8
  %17 = alloca ptr, align 8
  %18 = alloca ptr, align 8
  %19 = alloca ptr, align 8
  %20 = alloca i8, align 1
  store ptr %0, ptr %10, align 8
  store ptr %1, ptr %11, align 8
  store i32 %2, ptr %12, align 4
  store i32 %3, ptr %13, align 4
  store ptr %4, ptr %14, align 8
  store ptr %5, ptr %15, align 8
  store ptr %6, ptr %16, align 8
  store ptr %7, ptr %17, align 8
  store ptr %8, ptr %18, align 8
  call void @llvm.lifetime.start.p0(i64 8, ptr %19) #9
  %21 = load ptr, ptr %10, align 8
  %22 = load i32, ptr @hf_bytes, align 4
  %23 = load ptr, ptr %11, align 8
  %24 = load i32, ptr %12, align 4
  %25 = load i32, ptr %13, align 4
  %26 = load ptr, ptr %16, align 8
  %27 = call ptr (ptr, i32, ptr, i32, i32, ptr, ptr, ...) @proto_tree_add_bytes_format(ptr noundef %21, i32 noundef %22, ptr noundef %23, i32 noundef %24, i32 noundef %25, ptr noundef null, ptr noundef @.str.671, ptr noundef %26)
  store ptr %27, ptr %19, align 8
  %28 = load ptr, ptr %17, align 8
  %29 = icmp ne ptr %28, null
  br i1 %29, label %30, label %33

30:                                               ; preds = %9
  %31 = load ptr, ptr %14, align 8
  %32 = load ptr, ptr %17, align 8
  call void @col_append_str(ptr noundef %31, i32 noundef 25, ptr noundef %32)
  br label %33

33:                                               ; preds = %30, %9
  %34 = load ptr, ptr %18, align 8
  %35 = icmp ne ptr %34, null
  br i1 %35, label %36, label %39

36:                                               ; preds = %33
  %37 = load ptr, ptr %15, align 8
  %38 = load ptr, ptr %18, align 8
  call void (ptr, ptr, ...) @proto_item_append_text(ptr noundef %37, ptr noundef @.str.593, ptr noundef %38)
  br label %39

39:                                               ; preds = %36, %33
  br label %40

40:                                               ; preds = %60, %39
  %41 = load i32, ptr %13, align 4
  %42 = icmp sgt i32 %41, 0
  br i1 %42, label %43, label %68

43:                                               ; preds = %40
  call void @llvm.lifetime.start.p0(i64 1, ptr %20) #9
  %44 = load ptr, ptr %11, align 8
  %45 = load i32, ptr %12, align 4
  %46 = call zeroext i8 @tvb_get_uint8(ptr noundef %44, i32 noundef %45)
  store i8 %46, ptr %20, align 1
  %47 = load ptr, ptr %17, align 8
  %48 = icmp ne ptr %47, null
  br i1 %48, label %49, label %53

49:                                               ; preds = %43
  %50 = load ptr, ptr %14, align 8
  %51 = load i8, ptr %20, align 1
  %52 = zext i8 %51 to i32
  call void (ptr, i32, ptr, ...) @col_append_fstr(ptr noundef %50, i32 noundef 25, ptr noundef @.str.672, i32 noundef %52)
  br label %53

53:                                               ; preds = %49, %43
  %54 = load ptr, ptr %18, align 8
  %55 = icmp ne ptr %54, null
  br i1 %55, label %56, label %60

56:                                               ; preds = %53
  %57 = load ptr, ptr %15, align 8
  %58 = load i8, ptr %20, align 1
  %59 = zext i8 %58 to i32
  call void (ptr, ptr, ...) @proto_item_append_text(ptr noundef %57, ptr noundef @.str.672, i32 noundef %59)
  br label %60

60:                                               ; preds = %56, %53
  %61 = load ptr, ptr %19, align 8
  %62 = load i8, ptr %20, align 1
  %63 = zext i8 %62 to i32
  call void (ptr, ptr, ...) @proto_item_append_text(ptr noundef %61, ptr noundef @.str.658, i32 noundef %63)
  %64 = load i32, ptr %12, align 4
  %65 = add i32 %64, 1
  store i32 %65, ptr %12, align 4
  %66 = load i32, ptr %13, align 4
  %67 = add i32 %66, -1
  store i32 %67, ptr %13, align 4
  call void @llvm.lifetime.end.p0(i64 1, ptr %20) #9
  br label %40, !llvm.loop !9

68:                                               ; preds = %40
  %69 = load ptr, ptr %19, align 8
  call void @llvm.lifetime.end.p0(i64 8, ptr %19) #9
  ret ptr %69
}